target datalayout = "e-m:e-p270:32:32-p271:32:32-p272:64:64-i64:64-i128:128-f80:128-n8:16:32:64-S128"
target triple = "x86_64-pc-linux-gnu"

%struct.AVFormatContext = type { ptr, ptr, ptr, ptr, ptr, i32, i32, ptr, i32, ptr, i32, ptr, ptr, i64, i64, i64, i32, i32, i32, i64, i64, ptr, i32, i32, ptr, i32, i32, i32, i32, ptr, i64, i32, i32, %struct.AVIOInterruptCB, i32, i32, i32, i32, i64, i32, i32, i32, i32, i32, i32, i32, i32, i32, i32, i32, i32, i64, i32, i32, i32, i32, i32, ptr, ptr, ptr, ptr, i32, ptr, ptr, ptr, ptr, i32, ptr, ptr, i64, ptr, ptr, ptr, i64 }
%struct.AVIOInterruptCB = type { ptr, ptr }
%struct.RTSPState = type { ptr, ptr, i32, ptr, i32, i64, i32, [512 x i8], i32, i64, i32, i32, i32, [64 x i8], [128 x i8], %struct.HTTPAuthState, [2048 x i8], ptr, i32, ptr, ptr, [1024 x i8], ptr, i64, [4096 x i8], ptr, i32, i32, ptr, i32, i32, ptr, i32, i64, ptr, i32, i32, i32, i32, i32, i32, i32, i32, i32, i32, i64, i32, ptr, [4 x i8], i32, i32, ptr }
%struct.HTTPAuthState = type { i32, [200 x i8], %struct.DigestParams, i32 }
%struct.DigestParams = type { [300 x i8], [10 x i8], [30 x i8], [300 x i8], [10 x i8], i32 }

@.str.19 = private unnamed_addr constant [9 x i8] c"TEARDOWN\00", align 1

; Function Attrs: nounwind uwtable
define internal i32 @rtsp_read_close(ptr noundef %0) #0 {
  %2 = alloca ptr, align 8
  %3 = alloca ptr, align 8
  store ptr %0, ptr %2, align 8, !tbaa !4
  call void @llvm.lifetime.start.p0(i64 8, ptr %3) #10
  %4 = load ptr, ptr %2, align 8, !tbaa !4
  %5 = getelementptr inbounds nuw %struct.AVFormatContext, ptr %4, i32 0, i32 3
  %6 = load ptr, ptr %5, align 8, !tbaa !9
  store ptr %6, ptr %3, align 8, !tbaa !26
  %7 = load ptr, ptr %3, align 8, !tbaa !26
  %8 = getelementptr inbounds nuw %struct.RTSPState, ptr %7, i32 0, i32 40
  %9 = load i32, ptr %8, align 4, !tbaa !79
  %10 = and i32 %9, 2
  %11 = icmp ne i32 %10, 0
  br i1 %11, label %18, label %12

12:                                               ; preds = %1
  %13 = load ptr, ptr %2, align 8, !tbaa !4
  %14 = load ptr, ptr %3, align 8, !tbaa !26
  %15 = getelementptr inbounds nuw %struct.RTSPState, ptr %14, i32 0, i32 24
  %16 = getelementptr inbounds [4096 x i8], ptr %15, i64 0, i64 0
  %17 = call i32 @ff_rtsp_send_cmd_async(ptr noundef %13, ptr noundef @.str.19, ptr noundef %16, ptr noundef null)
  br label %18

18:                                               ; preds = %12, %1
  %19 = load ptr, ptr %2, align 8, !tbaa !4
  call void @ff_rtsp_close_streams(ptr noundef %19)
  %20 = load ptr, ptr %2, align 8, !tbaa !4
  call void @ff_rtsp_close_connections(ptr noundef %20)
  call void @ff_network_close()
  %21 = load ptr, ptr %3, align 8, !tbaa !26
  %22 = getelementptr inbounds nuw %struct.RTSPState, ptr %21, i32 0, i32 20
  store ptr null, ptr %22, align 8, !tbaa !82
  %23 = load ptr, ptr %3, align 8, !tbaa !26
  %24 = getelementptr inbounds nuw %struct.RTSPState, ptr %23, i32 0, i32 19
  call void @av_freep(ptr noundef %24)
  call void @llvm.lifetime.end.p0(i64 8, ptr %3) #10
  ret i32 0
}