; Function Attrs: nounwind uwtable
define internal noundef i32 @rtsp_read_close(ptr noundef %0) #0 {
  %2 = getelementptr inbounds nuw i8, ptr %0, i64 24
  %3 = load ptr, ptr %2, align 8, !tbaa !4
  %4 = getelementptr inbounds nuw i8, ptr %3, i64 8948
  %5 = load i32, ptr %4, align 4, !tbaa !67
  %6 = and i32 %5, 2
  %.not = icmp eq i32 %6, 0
  br i1 %.not, label %7, label %10

7:                                                ; preds = %1
  %8 = getelementptr inbounds nuw i8, ptr %3, i64 4768
  %9 = tail call i32 @ff_rtsp_send_cmd_async(ptr noundef nonnull %0, ptr noundef nonnull @.str.19, ptr noundef nonnull %8, ptr noundef null) #11
  br label %10

10:                                               ; preds = %7, %1
  tail call void @ff_rtsp_close_streams(ptr noundef nonnull %0) #11
  tail call void @ff_rtsp_close_connections(ptr noundef nonnull %0) #11
  tail call void @ff_network_close() #11
  %11 = getelementptr inbounds nuw i8, ptr %3, i64 3720
  store ptr null, ptr %11, align 8, !tbaa !93
  %12 = getelementptr inbounds nuw i8, ptr %3, i64 3712
  tail call void @av_freep(ptr noundef nonnull %12) #11
  ret i32 0
}